; Function Attrs: nounwind uwtable
define hidden noundef zeroext i1 @je_background_thread_boot0() local_unnamed_addr #0 {
  %1 = load i8, ptr @je_opt_background_thread, align 1, !tbaa !30, !range !31, !noundef !32
  %2 = trunc nuw i8 %1 to i1
  %3 = load ptr, ptr @pthread_create_fptr, align 8
  %.not.i = icmp eq ptr %3, null
  %or.cond = select i1 %2, i1 %.not.i, i1 false
  br i1 %or.cond, label %4, label %pthread_create_fptr_init.exit

4:                                                ; preds = %0
  %5 = tail call ptr @dlsym(ptr noundef nonnull inttoptr (i64 -1 to ptr), ptr noundef nonnull @.str.6) #12
  %6 = icmp eq ptr %5, null
  %spec.store.select.i = select i1 %6, ptr @pthread_create, ptr %5
  store ptr %spec.store.select.i, ptr @pthread_create_fptr, align 8
  br label %pthread_create_fptr_init.exit

pthread_create_fptr_init.exit:                    ; preds = %4, %0
  ret i1 false
}